
build/testbrand.elf:     file format elf32-littlearm


Disassembly of section .plt:

00000230 <.plt>:
 230:	e52de004 	push	{lr}		@ (str lr, [sp, #-4]!)
 234:	e59fe004 	ldr	lr, [pc, #4]	@ 240 <.plt+0x10>
 238:	e08fe00e 	add	lr, pc, lr
 23c:	e5bef008 	ldr	pc, [lr, #8]!
 240:	0000113c 	andeq	r1, r0, ip, lsr r1

00000244 <Model* createModel<TestModule, TestWidget>(char const*)@plt>:
 244:	e28fc600 	add	ip, pc, #0, 12
 248:	e28cca01 	add	ip, ip, #4096	@ 0x1000
 24c:	e5bcf13c 	ldr	pc, [ip, #316]!	@ 0x13c

00000250 <Plugin::addModel(Model*)@plt>:
 250:	e28fc600 	add	ip, pc, #0, 12
 254:	e28cca01 	add	ip, ip, #4096	@ 0x1000
 258:	e5bcf134 	ldr	pc, [ip, #308]!	@ 0x134

Disassembly of section .text:

0000025c <_GLOBAL__sub_I_test_module.cpp>:
		// addInput(createInput<PJ301MPort>(Vec(7, 28), module, TestModule::A1_INPUT));
		// addOutput(createOutput<PJ301MPort>(Vec(7, 154), module, TestModule::OUT1_OUTPUT));
	}
};

Model *modelTest = createModel<TestModule, TestWidget>("TestModuleSlug");
 25c:	e92d4010 	push	{r4, lr}
 260:	e59f401c 	ldr	r4, [pc, #28]	@ 284 <_GLOBAL__sub_I_test_module.cpp+0x28>
 264:	e08f4004 	add	r4, pc, r4
 268:	e59f0018 	ldr	r0, [pc, #24]	@ 288 <_GLOBAL__sub_I_test_module.cpp+0x2c>
 26c:	e08f0000 	add	r0, pc, r0
 270:	ebfffff3 	bl	244 <Model* createModel<TestModule, TestWidget>(char const*)@plt>
 274:	e59f3010 	ldr	r3, [pc, #16]	@ 28c <_GLOBAL__sub_I_test_module.cpp+0x30>
 278:	e7943003 	ldr	r3, [r4, r3]
 27c:	e5830000 	str	r0, [r3]
 280:	e8bd8010 	pop	{r4, pc}
 284:	00001110 	andeq	r1, r0, r0, lsl r1
 288:	00000054 	andeq	r0, r0, r4, asr r0
 28c:	00000014 	andeq	r0, r0, r4, lsl r0

00000290 <init(Plugin*)>:
#include "plugin.hpp"

Plugin *pluginInstance;

void init(Plugin *p) {
 290:	e92d4010 	push	{r4, lr}
 294:	e59f3020 	ldr	r3, [pc, #32]	@ 2bc <init(Plugin*)+0x2c>
 298:	e08f3003 	add	r3, pc, r3
	pluginInstance = p;
 29c:	e59f201c 	ldr	r2, [pc, #28]	@ 2c0 <init(Plugin*)+0x30>
 2a0:	e7932002 	ldr	r2, [r3, r2]
 2a4:	e5820000 	str	r0, [r2]

	p->addModel(modelTest);
 2a8:	e59f2014 	ldr	r2, [pc, #20]	@ 2c4 <init(Plugin*)+0x34>
 2ac:	e7933002 	ldr	r3, [r3, r2]
 2b0:	e5931000 	ldr	r1, [r3]
 2b4:	ebffffe5 	bl	250 <Plugin::addModel(Model*)@plt>
}
 2b8:	e8bd8010 	pop	{r4, pc}
 2bc:	000010dc 	ldrdeq	r1, [r0], -ip
 2c0:	00000018 	andeq	r0, r0, r8, lsl r0
 2c4:	00000014 	andeq	r0, r0, r4, lsl r0
